
key_leds_elf:     file format elf32-littlearm

Disassembly of section .text:

00000000 <_start>:
   0:	e59f0010 	ldr	r0, [pc, #16]	; 18 <.text+0x18>
   4:	e3a01000 	mov	r1, #0	; 0x0
   8:	e5801000 	str	r1, [r0]
   c:	e3a0da01 	mov	sp, #4096	; 0x1000
  10:	eb00000e 	bl	50 <main>

00000014 <HALT_LOOP>:
  14:	eafffffe 	b	14 <HALT_LOOP>
  18:	56000010 	undefined

0000001c <Delay>:
  1c:	e1a0c00d 	mov	ip, sp
  20:	e92dd800 	stmdb	sp!, {fp, ip, lr, pc}
  24:	e24cb004 	sub	fp, ip, #4	; 0x4
  28:	e24dd004 	sub	sp, sp, #4	; 0x4
  2c:	e50b0010 	str	r0, [fp, #-16]
  30:	e51b3010 	ldr	r3, [fp, #-16]
  34:	e3530000 	cmp	r3, #0	; 0x0
  38:	0a000003 	beq	4c <Delay+0x30>
  3c:	e51b3010 	ldr	r3, [fp, #-16]
  40:	e2433001 	sub	r3, r3, #1	; 0x1
  44:	e50b3010 	str	r3, [fp, #-16]
  48:	eafffff8 	b	30 <Delay+0x14>
  4c:	e89da808 	ldmia	sp, {r3, fp, sp, pc}

00000050 <main>:
  50:	e1a0c00d 	mov	ip, sp
  54:	e92dd800 	stmdb	sp!, {fp, ip, lr, pc}
  58:	e24cb004 	sub	fp, ip, #4	; 0x4
  5c:	e24dd004 	sub	sp, sp, #4	; 0x4
  60:	e3a03000 	mov	r3, #0	; 0x0
  64:	e50b3010 	str	r3, [fp, #-16]
  68:	e3a03456 	mov	r3, #1442840576	; 0x56000000
  6c:	e2833050 	add	r3, r3, #80	; 0x50
  70:	e3a02c15 	mov	r2, #5376	; 0x1500
  74:	e5832000 	str	r2, [r3]
  78:	e3a00c75 	mov	r0, #29952	; 0x7500
  7c:	e2800030 	add	r0, r0, #48	; 0x30
  80:	ebffffe5 	bl	1c <Delay>
  84:	e3a03456 	mov	r3, #1442840576	; 0x56000000
  88:	e2833054 	add	r3, r3, #84	; 0x54
  8c:	e51b2010 	ldr	r2, [fp, #-16]
  90:	e1a02202 	mov	r2, r2, lsl #4
  94:	e5832000 	str	r2, [r3]
  98:	e51b3010 	ldr	r3, [fp, #-16]
  9c:	e2833001 	add	r3, r3, #1	; 0x1
  a0:	e50b3010 	str	r3, [fp, #-16]
  a4:	e3530009 	cmp	r3, #9	; 0x9
  a8:	1afffff2 	bne	78 <main+0x28>
  ac:	e3a03000 	mov	r3, #0	; 0x0
  b0:	e50b3010 	str	r3, [fp, #-16]
  b4:	eaffffef 	b	78 <main+0x28>